target datalayout = "e-m:e-p270:32:32-p271:32:32-p272:64:64-i64:64-i128:128-f80:128-n8:16:32:64-S128"
target triple = "x86_64-pc-linux-gnu"

%struct.Kit_Sop_t_ = type { i32, i32, ptr }
%struct.Vec_Int_t_ = type { i32, i32, ptr }

; Function Attrs: inlinehint nounwind uwtable
define internal void @Kit_SopPushCube(ptr noundef %0, i32 noundef %1) #2 {
  %3 = alloca ptr, align 8
  %4 = alloca i32, align 4
  store ptr %0, ptr %3, align 8, !tbaa !3
  store i32 %1, ptr %4, align 4, !tbaa !10
  %5 = load i32, ptr %4, align 4, !tbaa !10
  %6 = load ptr, ptr %3, align 8, !tbaa !3
  %7 = getelementptr inbounds nuw %struct.Kit_Sop_t_, ptr %6, i32 0, i32 2
  %8 = load ptr, ptr %7, align 8, !tbaa !15
  %9 = load ptr, ptr %3, align 8, !tbaa !3
  %10 = getelementptr inbounds nuw %struct.Kit_Sop_t_, ptr %9, i32 0, i32 1
  %11 = load i32, ptr %10, align 4, !tbaa !12
  %12 = add nsw i32 %11, 1
  store i32 %12, ptr %10, align 4, !tbaa !12
  %13 = sext i32 %11 to i64
  %14 = getelementptr inbounds i32, ptr %8, i64 %13
  store i32 %5, ptr %14, align 4, !tbaa !10
  ret void
}

; Function Attrs: inlinehint nounwind uwtable
define internal i32 @Vec_IntEntry(ptr noundef %0, i32 noundef %1) #2 {
  %3 = alloca ptr, align 8
  %4 = alloca i32, align 4
  store ptr %0, ptr %3, align 8, !tbaa !8
  store i32 %1, ptr %4, align 4, !tbaa !10
  %5 = load ptr, ptr %3, align 8, !tbaa !8
  %6 = getelementptr inbounds nuw %struct.Vec_Int_t_, ptr %5, i32 0, i32 2
  %7 = load ptr, ptr %6, align 8, !tbaa !21
  %8 = load i32, ptr %4, align 4, !tbaa !10
  %9 = sext i32 %8 to i64
  %10 = getelementptr inbounds i32, ptr %7, i64 %9
  %11 = load i32, ptr %10, align 4, !tbaa !10
  ret i32 %11
}

; Function Attrs: inlinehint nounwind uwtable
define internal ptr @Vec_IntFetch(ptr noundef %0, i32 noundef %1) #2 {
  %3 = alloca ptr, align 8
  %4 = alloca ptr, align 8
  %5 = alloca i32, align 4
  store ptr %0, ptr %4, align 8, !tbaa !8
  store i32 %1, ptr %5, align 4, !tbaa !10
  %6 = load i32, ptr %5, align 4, !tbaa !10
  %7 = icmp eq i32 %6, 0
  br i1 %7, label %8, label %9

8:                                                ; preds = %2
  store ptr null, ptr %3, align 8
  br label %36

9:                                                ; preds = %2
  %10 = load i32, ptr %5, align 4, !tbaa !10
  %11 = load ptr, ptr %4, align 8, !tbaa !8
  %12 = getelementptr inbounds nuw %struct.Vec_Int_t_, ptr %11, i32 0, i32 1
  %13 = load i32, ptr %12, align 4, !tbaa !18
  %14 = add nsw i32 %13, %10
  store i32 %14, ptr %12, align 4, !tbaa !18
  %15 = load ptr, ptr %4, align 8, !tbaa !8
  %16 = getelementptr inbounds nuw %struct.Vec_Int_t_, ptr %15, i32 0, i32 1
  %17 = load i32, ptr %16, align 4, !tbaa !18
  %18 = load ptr, ptr %4, align 8, !tbaa !8
  %19 = getelementptr inbounds nuw %struct.Vec_Int_t_, ptr %18, i32 0, i32 0
  %20 = load i32, ptr %19, align 8, !tbaa !20
  %21 = icmp sgt i32 %17, %20
  br i1 %21, label %22, label %23

22:                                               ; preds = %9
  store ptr null, ptr %3, align 8
  br label %36

23:                                               ; preds = %9
  %24 = load ptr, ptr %4, align 8, !tbaa !8
  %25 = getelementptr inbounds nuw %struct.Vec_Int_t_, ptr %24, i32 0, i32 2
  %26 = load ptr, ptr %25, align 8, !tbaa !21
  %27 = load ptr, ptr %4, align 8, !tbaa !8
  %28 = getelementptr inbounds nuw %struct.Vec_Int_t_, ptr %27, i32 0, i32 1
  %29 = load i32, ptr %28, align 4, !tbaa !18
  %30 = sext i32 %29 to i64
  %31 = getelementptr inbounds i32, ptr %26, i64 %30
  %32 = load i32, ptr %5, align 4, !tbaa !10
  %33 = sext i32 %32 to i64
  %34 = sub i64 0, %33
  %35 = getelementptr inbounds i32, ptr %31, i64 %34
  store ptr %35, ptr %3, align 8
  br label %36

36:                                               ; preds = %23, %22, %8
  %37 = load ptr, ptr %3, align 8
  ret ptr %37
}

; Function Attrs: inlinehint nounwind uwtable
define internal i32 @Vec_IntSize(ptr noundef %0) #2 {
  %2 = alloca ptr, align 8
  store ptr %0, ptr %2, align 8, !tbaa !8
  %3 = load ptr, ptr %2, align 8, !tbaa !8
  %4 = getelementptr inbounds nuw %struct.Vec_Int_t_, ptr %3, i32 0, i32 1
  %5 = load i32, ptr %4, align 4, !tbaa !18
  ret i32 %5
}

; Function Attrs: nounwind uwtable
define void @Kit_SopCreateInverse(ptr noundef %0, ptr noundef %1, i32 noundef %2, ptr noundef %3) #0 {
  %5 = alloca ptr, align 8
  %6 = alloca ptr, align 8
  %7 = alloca i32, align 4
  %8 = alloca ptr, align 8
  %9 = alloca i32, align 4
  %10 = alloca i32, align 4
  %11 = alloca i32, align 4
  %12 = alloca i32, align 4
  store ptr %0, ptr %5, align 8, !tbaa !3
  store ptr %1, ptr %6, align 8, !tbaa !8
  store i32 %2, ptr %7, align 4, !tbaa !10
  store ptr %3, ptr %8, align 8, !tbaa !8
  call void @llvm.lifetime.start.p0(i64 4, ptr %9) #3
  call void @llvm.lifetime.start.p0(i64 4, ptr %10) #3
  store i32 0, ptr %10, align 4, !tbaa !10
  call void @llvm.lifetime.start.p0(i64 4, ptr %11) #3
  call void @llvm.lifetime.start.p0(i64 4, ptr %12) #3
  %13 = load ptr, ptr %6, align 8, !tbaa !8
  %14 = call i32 @Vec_IntSize(ptr noundef %13)
  store i32 %14, ptr %12, align 4, !tbaa !10
  %15 = load ptr, ptr %5, align 8, !tbaa !3
  %16 = getelementptr inbounds nuw %struct.Kit_Sop_t_, ptr %15, i32 0, i32 1
  store i32 0, ptr %16, align 4, !tbaa !12
  %17 = load ptr, ptr %8, align 8, !tbaa !8
  %18 = load i32, ptr %12, align 4, !tbaa !10
  %19 = call ptr @Vec_IntFetch(ptr noundef %17, i32 noundef %18)
  %20 = load ptr, ptr %5, align 8, !tbaa !3
  %21 = getelementptr inbounds nuw %struct.Kit_Sop_t_, ptr %20, i32 0, i32 2
  store ptr %19, ptr %21, align 8, !tbaa !15
  store i32 0, ptr %11, align 4, !tbaa !10
  br label %22

22:                                               ; preds = %43, %4
  %23 = load i32, ptr %11, align 4, !tbaa !10
  %24 = load i32, ptr %12, align 4, !tbaa !10
  %25 = icmp slt i32 %23, %24
  br i1 %25, label %26, label %46

26:                                               ; preds = %22
  %27 = load ptr, ptr %6, align 8, !tbaa !8
  %28 = load i32, ptr %11, align 4, !tbaa !10
  %29 = call i32 @Vec_IntEntry(ptr noundef %27, i32 noundef %28)
  store i32 %29, ptr %9, align 4, !tbaa !10
  %30 = load i32, ptr %9, align 4, !tbaa !10
  %31 = load i32, ptr %9, align 4, !tbaa !10
  %32 = lshr i32 %31, 1
  %33 = or i32 %30, %32
  %34 = and i32 %33, 1431655765
  store i32 %34, ptr %10, align 4, !tbaa !10
  %35 = load i32, ptr %10, align 4, !tbaa !10
  %36 = shl i32 %35, 1
  %37 = load i32, ptr %10, align 4, !tbaa !10
  %38 = or i32 %37, %36
  store i32 %38, ptr %10, align 4, !tbaa !10
  %39 = load ptr, ptr %5, align 8, !tbaa !3
  %40 = load i32, ptr %9, align 4, !tbaa !10
  %41 = load i32, ptr %10, align 4, !tbaa !10
  %42 = xor i32 %40, %41
  call void @Kit_SopPushCube(ptr noundef %39, i32 noundef %42)
  br label %43

43:                                               ; preds = %26
  %44 = load i32, ptr %11, align 4, !tbaa !10
  %45 = add nsw i32 %44, 1
  store i32 %45, ptr %11, align 4, !tbaa !10
  br label %22, !llvm.loop !22

46:                                               ; preds = %22
  call void @llvm.lifetime.end.p0(i64 4, ptr %12) #3
  call void @llvm.lifetime.end.p0(i64 4, ptr %11) #3
  call void @llvm.lifetime.end.p0(i64 4, ptr %10) #3
  call void @llvm.lifetime.end.p0(i64 4, ptr %9) #3
  ret void
}