; Function Attrs: nofree norecurse nosync nounwind memory(readwrite, inaccessiblemem: none) uwtable
define void @Kit_SopCreateInverse(ptr noundef captures(none) initializes((4, 16)) %0, ptr noundef readonly captures(none) %1, i32 noundef %2, ptr noundef captures(none) %3) local_unnamed_addr #0 {
  %5 = getelementptr i8, ptr %1, i64 4
  %.val = load i32, ptr %5, align 4, !tbaa !10
  %6 = getelementptr inbounds nuw i8, ptr %0, i64 4
  store i32 0, ptr %6, align 4, !tbaa !3
  %7 = icmp eq i32 %.val, 0
  br i1 %7, label %Vec_IntFetch.exit.thread, label %9

Vec_IntFetch.exit.thread:                         ; preds = %4
  %8 = getelementptr inbounds nuw i8, ptr %0, i64 8
  store ptr null, ptr %8, align 8, !tbaa !12
  br label %._crit_edge

9:                                                ; preds = %4
  %10 = getelementptr inbounds nuw i8, ptr %3, i64 4
  %11 = load i32, ptr %10, align 4, !tbaa !10
  %12 = add nsw i32 %11, %.val
  store i32 %12, ptr %10, align 4, !tbaa !10
  %13 = load i32, ptr %3, align 8, !tbaa !13
  %14 = icmp sgt i32 %12, %13
  br i1 %14, label %Vec_IntFetch.exit, label %15

15:                                               ; preds = %9
  %16 = getelementptr inbounds nuw i8, ptr %3, i64 8
  %17 = load ptr, ptr %16, align 8, !tbaa !14
  %18 = sext i32 %12 to i64
  %19 = getelementptr inbounds i32, ptr %17, i64 %18
  %20 = sext i32 %.val to i64
  %21 = sub nsw i64 0, %20
  %22 = getelementptr inbounds i32, ptr %19, i64 %21
  br label %Vec_IntFetch.exit

Vec_IntFetch.exit:                                ; preds = %9, %15
  %.0.i = phi ptr [ %22, %15 ], [ null, %9 ]
  %23 = getelementptr inbounds nuw i8, ptr %0, i64 8
  store ptr %.0.i, ptr %23, align 8, !tbaa !12
  %24 = icmp sgt i32 %.val, 0
  br i1 %24, label %.lr.ph, label %._crit_edge

.lr.ph:                                           ; preds = %Vec_IntFetch.exit
  %25 = getelementptr i8, ptr %1, i64 8
  %.val16 = load ptr, ptr %25, align 8, !tbaa !14
  %wide.trip.count = zext nneg i32 %.val to i64
  br label %26

26:                                               ; preds = %.lr.ph, %26
  %indvars.iv = phi i64 [ 0, %.lr.ph ], [ %indvars.iv.next, %26 ]
  %27 = getelementptr inbounds nuw i32, ptr %.val16, i64 %indvars.iv
  %28 = load i32, ptr %27, align 4, !tbaa !15
  %29 = lshr i32 %28, 1
  %30 = or i32 %29, %28
  %31 = and i32 %30, 1431655765
  %32 = mul nuw i32 %31, 3
  %33 = xor i32 %32, %28
  %34 = load i32, ptr %6, align 4, !tbaa !3
  %35 = add nsw i32 %34, 1
  store i32 %35, ptr %6, align 4, !tbaa !3
  %36 = sext i32 %34 to i64
  %37 = getelementptr inbounds i32, ptr %.0.i, i64 %36
  store i32 %33, ptr %37, align 4, !tbaa !15
  %indvars.iv.next = add nuw nsw i64 %indvars.iv, 1
  %exitcond.not = icmp eq i64 %indvars.iv.next, %wide.trip.count
  br i1 %exitcond.not, label %._crit_edge, label %26, !llvm.loop !18

._crit_edge:                                      ; preds = %26, %Vec_IntFetch.exit.thread, %Vec_IntFetch.exit
  ret void
}